target datalayout = "e-m:e-p270:32:32-p271:32:32-p272:64:64-i64:64-i128:128-f80:128-n8:16:32:64-S128"
target triple = "x86_64-pc-linux-gnu"

%struct.TXFM_2D_FLIP_CFG = type { i8, i32, i32, ptr, i8, i8, [12 x i8], [12 x i8], i8, i8, i32, i32 }

@av1_inv_cos_bit_col = hidden constant [5 x [5 x i8]] [[5 x i8] c"\0C\0C\0C\00\00", [5 x i8] c"\0C\0C\0C\0C\00", [5 x i8] c"\0C\0C\0C\0C\0C", [5 x i8] c"\00\0C\0C\0C\0C", [5 x i8] c"\00\00\0C\0C\0C"], align 16
@av1_inv_cos_bit_row = hidden constant [5 x [5 x i8]] [[5 x i8] c"\0C\0C\0C\00\00", [5 x i8] c"\0C\0C\0C\0C\00", [5 x i8] c"\0C\0C\0C\0C\0C", [5 x i8] c"\00\0C\0C\0C\0C", [5 x i8] c"\00\00\0C\0C\0C"], align 16
@vtx_tab = internal constant [16 x i8] c"\00\01\00\01\02\00\02\01\02\03\00\03\01\03\02\03", align 16
@htx_tab = internal constant [16 x i8] c"\00\00\01\01\00\02\02\02\01\03\03\00\03\01\03\02", align 16
@av1_txfm_type_ls = external constant [5 x [4 x i8]], align 16
@iadst4_range = internal constant [7 x i8] c"\00\01\00\00\00\00\00", align 1
@av1_txfm_stage_num_list = external constant [12 x i8], align 1
@tx_size_wide_log2 = internal constant [19 x i32] [i32 2, i32 3, i32 4, i32 5, i32 6, i32 2, i32 3, i32 3, i32 4, i32 4, i32 5, i32 5, i32 6, i32 2, i32 4, i32 3, i32 5, i32 4, i32 6], align 16
@tx_size_high_log2 = internal constant [19 x i32] [i32 2, i32 3, i32 4, i32 5, i32 6, i32 3, i32 2, i32 4, i32 3, i32 5, i32 4, i32 6, i32 5, i32 4, i32 2, i32 5, i32 3, i32 6, i32 4], align 16

; Function Attrs: nounwind uwtable
define internal void @get_flip_cfg(i8 noundef zeroext %0, ptr noundef %1, ptr noundef %2) #0 {
  %4 = alloca i8, align 1
  %5 = alloca ptr, align 8
  %6 = alloca ptr, align 8
  store i8 %0, ptr %4, align 1
  store ptr %1, ptr %5, align 8
  store ptr %2, ptr %6, align 8
  %7 = load i8, ptr %4, align 1
  %8 = zext i8 %7 to i32
  switch i32 %8, label %24 [
    i32 0, label %9
    i32 1, label %9
    i32 2, label %9
    i32 3, label %9
    i32 9, label %12
    i32 10, label %12
    i32 11, label %12
    i32 12, label %12
    i32 13, label %12
    i32 4, label %15
    i32 8, label %15
    i32 14, label %15
    i32 5, label %18
    i32 7, label %18
    i32 15, label %18
    i32 6, label %21
  ]

9:                                                ; preds = %3, %3, %3, %3
  %10 = load ptr, ptr %5, align 8
  store i32 0, ptr %10, align 4
  %11 = load ptr, ptr %6, align 8
  store i32 0, ptr %11, align 4
  br label %27

12:                                               ; preds = %3, %3, %3, %3, %3
  %13 = load ptr, ptr %5, align 8
  store i32 0, ptr %13, align 4
  %14 = load ptr, ptr %6, align 8
  store i32 0, ptr %14, align 4
  br label %27

15:                                               ; preds = %3, %3, %3
  %16 = load ptr, ptr %5, align 8
  store i32 1, ptr %16, align 4
  %17 = load ptr, ptr %6, align 8
  store i32 0, ptr %17, align 4
  br label %27

18:                                               ; preds = %3, %3, %3
  %19 = load ptr, ptr %5, align 8
  store i32 0, ptr %19, align 4
  %20 = load ptr, ptr %6, align 8
  store i32 1, ptr %20, align 4
  br label %27

21:                                               ; preds = %3
  %22 = load ptr, ptr %5, align 8
  store i32 1, ptr %22, align 4
  %23 = load ptr, ptr %6, align 8
  store i32 1, ptr %23, align 4
  br label %27

24:                                               ; preds = %3
  %25 = load ptr, ptr %5, align 8
  store i32 0, ptr %25, align 4
  %26 = load ptr, ptr %6, align 8
  store i32 0, ptr %26, align 4
  br label %27

27:                                               ; preds = %24, %21, %18, %15, %12, %9
  ret void
}

; Function Attrs: nounwind uwtable
define internal i32 @get_txh_idx(i8 noundef zeroext %0) #0 {
  %2 = alloca i8, align 1
  store i8 %0, ptr %2, align 1
  %3 = load i8, ptr %2, align 1
  %4 = zext i8 %3 to i64
  %5 = getelementptr inbounds [19 x i32], ptr @tx_size_high_log2, i64 0, i64 %4
  %6 = load i32, ptr %5, align 4
  %7 = load i32, ptr @tx_size_high_log2, align 16
  %8 = sub nsw i32 %6, %7
  ret i32 %8
}

; Function Attrs: nounwind uwtable
define internal i32 @get_txw_idx(i8 noundef zeroext %0) #0 {
  %2 = alloca i8, align 1
  store i8 %0, ptr %2, align 1
  %3 = load i8, ptr %2, align 1
  %4 = zext i8 %3 to i64
  %5 = getelementptr inbounds [19 x i32], ptr @tx_size_wide_log2, i64 0, i64 %4
  %6 = load i32, ptr %5, align 4
  %7 = load i32, ptr @tx_size_wide_log2, align 16
  %8 = sub nsw i32 %6, %7
  ret i32 %8
}

; Function Attrs: nounwind uwtable
define internal void @set_flip_cfg(i8 noundef zeroext %0, ptr noundef %1) #0 {
  %3 = alloca i8, align 1
  %4 = alloca ptr, align 8
  store i8 %0, ptr %3, align 1
  store ptr %1, ptr %4, align 8
  %5 = load i8, ptr %3, align 1
  %6 = load ptr, ptr %4, align 8
  %7 = getelementptr inbounds nuw %struct.TXFM_2D_FLIP_CFG, ptr %6, i32 0, i32 1
  %8 = load ptr, ptr %4, align 8
  %9 = getelementptr inbounds nuw %struct.TXFM_2D_FLIP_CFG, ptr %8, i32 0, i32 2
  call void @get_flip_cfg(i8 noundef zeroext %5, ptr noundef %7, ptr noundef %9)
  ret void
}

; Function Attrs: nounwind uwtable
define hidden void @av1_get_inv_txfm_cfg(i8 noundef zeroext %0, i8 noundef zeroext %1, ptr noundef %2) #0 {
  %4 = alloca i8, align 1
  %5 = alloca i8, align 1
  %6 = alloca ptr, align 8
  %7 = alloca i8, align 1
  %8 = alloca i8, align 1
  %9 = alloca i32, align 4
  %10 = alloca i32, align 4
  store i8 %0, ptr %4, align 1
  store i8 %1, ptr %5, align 1
  store ptr %2, ptr %6, align 8
  %11 = load i8, ptr %5, align 1
  %12 = load ptr, ptr %6, align 8
  %13 = getelementptr inbounds nuw %struct.TXFM_2D_FLIP_CFG, ptr %12, i32 0, i32 0
  store i8 %11, ptr %13, align 8
  %14 = load ptr, ptr %6, align 8
  %15 = getelementptr inbounds nuw %struct.TXFM_2D_FLIP_CFG, ptr %14, i32 0, i32 6
  call void @llvm.memset.p0.i64(ptr align 2 %15, i8 0, i64 12, i1 false)
  %16 = load ptr, ptr %6, align 8
  %17 = getelementptr inbounds nuw %struct.TXFM_2D_FLIP_CFG, ptr %16, i32 0, i32 7
  call void @llvm.memset.p0.i64(ptr align 2 %17, i8 0, i64 12, i1 false)
  %18 = load i8, ptr %4, align 1
  %19 = load ptr, ptr %6, align 8
  call void @set_flip_cfg(i8 noundef zeroext %18, ptr noundef %19)
  %20 = load i8, ptr %4, align 1
  %21 = zext i8 %20 to i64
  %22 = getelementptr inbounds [16 x i8], ptr @vtx_tab, i64 0, i64 %21
  %23 = load i8, ptr %22, align 1
  store i8 %23, ptr %7, align 1
  %24 = load i8, ptr %4, align 1
  %25 = zext i8 %24 to i64
  %26 = getelementptr inbounds [16 x i8], ptr @htx_tab, i64 0, i64 %25
  %27 = load i8, ptr %26, align 1
  store i8 %27, ptr %8, align 1
  %28 = load i8, ptr %5, align 1
  %29 = zext i8 %28 to i64
  %30 = getelementptr inbounds [19 x ptr], ptr @av1_inv_txfm_shift_ls, i64 0, i64 %29
  %31 = load ptr, ptr %30, align 8
  %32 = load ptr, ptr %6, align 8
  %33 = getelementptr inbounds nuw %struct.TXFM_2D_FLIP_CFG, ptr %32, i32 0, i32 3
  store ptr %31, ptr %33, align 8
  %34 = load i8, ptr %5, align 1
  %35 = call i32 @get_txw_idx(i8 noundef zeroext %34)
  store i32 %35, ptr %9, align 4
  %36 = load i8, ptr %5, align 1
  %37 = call i32 @get_txh_idx(i8 noundef zeroext %36)
  store i32 %37, ptr %10, align 4
  %38 = load i32, ptr %9, align 4
  %39 = sext i32 %38 to i64
  %40 = getelementptr inbounds [5 x [5 x i8]], ptr @av1_inv_cos_bit_col, i64 0, i64 %39
  %41 = load i32, ptr %10, align 4
  %42 = sext i32 %41 to i64
  %43 = getelementptr inbounds [5 x i8], ptr %40, i64 0, i64 %42
  %44 = load i8, ptr %43, align 1
  %45 = load ptr, ptr %6, align 8
  %46 = getelementptr inbounds nuw %struct.TXFM_2D_FLIP_CFG, ptr %45, i32 0, i32 4
  store i8 %44, ptr %46, align 8
  %47 = load i32, ptr %9, align 4
  %48 = sext i32 %47 to i64
  %49 = getelementptr inbounds [5 x [5 x i8]], ptr @av1_inv_cos_bit_row, i64 0, i64 %48
  %50 = load i32, ptr %10, align 4
  %51 = sext i32 %50 to i64
  %52 = getelementptr inbounds [5 x i8], ptr %49, i64 0, i64 %51
  %53 = load i8, ptr %52, align 1
  %54 = load ptr, ptr %6, align 8
  %55 = getelementptr inbounds nuw %struct.TXFM_2D_FLIP_CFG, ptr %54, i32 0, i32 5
  store i8 %53, ptr %55, align 1
  %56 = load i32, ptr %10, align 4
  %57 = sext i32 %56 to i64
  %58 = getelementptr inbounds [5 x [4 x i8]], ptr @av1_txfm_type_ls, i64 0, i64 %57
  %59 = load i8, ptr %7, align 1
  %60 = zext i8 %59 to i64
  %61 = getelementptr inbounds [4 x i8], ptr %58, i64 0, i64 %60
  %62 = load i8, ptr %61, align 1
  %63 = load ptr, ptr %6, align 8
  %64 = getelementptr inbounds nuw %struct.TXFM_2D_FLIP_CFG, ptr %63, i32 0, i32 8
  store i8 %62, ptr %64, align 2
  %65 = load ptr, ptr %6, align 8
  %66 = getelementptr inbounds nuw %struct.TXFM_2D_FLIP_CFG, ptr %65, i32 0, i32 8
  %67 = load i8, ptr %66, align 2
  %68 = zext i8 %67 to i32
  %69 = icmp eq i32 %68, 5
  br i1 %69, label %70, label %74

70:                                               ; preds = %3
  %71 = load ptr, ptr %6, align 8
  %72 = getelementptr inbounds nuw %struct.TXFM_2D_FLIP_CFG, ptr %71, i32 0, i32 6
  %73 = getelementptr inbounds [12 x i8], ptr %72, i64 0, i64 0
  call void @llvm.memcpy.p0.p0.i64(ptr align 2 %73, ptr align 1 @iadst4_range, i64 7, i1 false)
  br label %74

74:                                               ; preds = %70, %3
  %75 = load i32, ptr %9, align 4
  %76 = sext i32 %75 to i64
  %77 = getelementptr inbounds [5 x [4 x i8]], ptr @av1_txfm_type_ls, i64 0, i64 %76
  %78 = load i8, ptr %8, align 1
  %79 = zext i8 %78 to i64
  %80 = getelementptr inbounds [4 x i8], ptr %77, i64 0, i64 %79
  %81 = load i8, ptr %80, align 1
  %82 = load ptr, ptr %6, align 8
  %83 = getelementptr inbounds nuw %struct.TXFM_2D_FLIP_CFG, ptr %82, i32 0, i32 9
  store i8 %81, ptr %83, align 1
  %84 = load ptr, ptr %6, align 8
  %85 = getelementptr inbounds nuw %struct.TXFM_2D_FLIP_CFG, ptr %84, i32 0, i32 9
  %86 = load i8, ptr %85, align 1
  %87 = zext i8 %86 to i32
  %88 = icmp eq i32 %87, 5
  br i1 %88, label %89, label %93

89:                                               ; preds = %74
  %90 = load ptr, ptr %6, align 8
  %91 = getelementptr inbounds nuw %struct.TXFM_2D_FLIP_CFG, ptr %90, i32 0, i32 7
  %92 = getelementptr inbounds [12 x i8], ptr %91, i64 0, i64 0
  call void @llvm.memcpy.p0.p0.i64(ptr align 2 %92, ptr align 1 @iadst4_range, i64 7, i1 false)
  br label %93

93:                                               ; preds = %89, %74
  %94 = load ptr, ptr %6, align 8
  %95 = getelementptr inbounds nuw %struct.TXFM_2D_FLIP_CFG, ptr %94, i32 0, i32 8
  %96 = load i8, ptr %95, align 2
  %97 = zext i8 %96 to i64
  %98 = getelementptr inbounds [12 x i8], ptr @av1_txfm_stage_num_list, i64 0, i64 %97
  %99 = load i8, ptr %98, align 1
  %100 = sext i8 %99 to i32
  %101 = load ptr, ptr %6, align 8
  %102 = getelementptr inbounds nuw %struct.TXFM_2D_FLIP_CFG, ptr %101, i32 0, i32 10
  store i32 %100, ptr %102, align 4
  %103 = load ptr, ptr %6, align 8
  %104 = getelementptr inbounds nuw %struct.TXFM_2D_FLIP_CFG, ptr %103, i32 0, i32 9
  %105 = load i8, ptr %104, align 1
  %106 = zext i8 %105 to i64
  %107 = getelementptr inbounds [12 x i8], ptr @av1_txfm_stage_num_list, i64 0, i64 %106
  %108 = load i8, ptr %107, align 1
  %109 = sext i8 %108 to i32
  %110 = load ptr, ptr %6, align 8
  %111 = getelementptr inbounds nuw %struct.TXFM_2D_FLIP_CFG, ptr %110, i32 0, i32 11
  store i32 %109, ptr %111, align 8
  ret void
}