; Function Attrs: mustprogress nofree norecurse nosync nounwind willreturn memory(read, argmem: readwrite, inaccessiblemem: none) uwtable
define hidden void @av1_get_inv_txfm_cfg(i8 noundef zeroext %0, i8 noundef zeroext %1, ptr noundef writeonly captures(none) initializes((0, 1), (4, 12), (16, 60)) %2) local_unnamed_addr #1 {
  store i8 %1, ptr %2, align 8
  %4 = getelementptr inbounds nuw i8, ptr %2, i64 26
  %5 = getelementptr inbounds nuw i8, ptr %2, i64 38
  tail call void @llvm.memset.p0.i64(ptr noundef nonnull align 2 dereferenceable(24) %4, i8 0, i64 24, i1 false)
  %switch.tableidx = add i8 %0, -4
  %6 = icmp ult i8 %switch.tableidx, 12
  br i1 %6, label %switch.lookup, label %set_flip_cfg.exit

switch.lookup:                                    ; preds = %3
  %7 = zext nneg i8 %switch.tableidx to i64
  %switch.gep = getelementptr inbounds nuw [12 x i32], ptr @switch.table.av1_get_inv_txfm_cfg, i64 0, i64 %7
  %switch.load = load i32, ptr %switch.gep, align 4
  %8 = zext nneg i8 %switch.tableidx to i64
  %switch.gep31 = getelementptr inbounds nuw [12 x i32], ptr @switch.table.av1_get_inv_txfm_cfg.1, i64 0, i64 %8
  %switch.load32 = load i32, ptr %switch.gep31, align 4
  br label %set_flip_cfg.exit

set_flip_cfg.exit:                                ; preds = %switch.lookup, %3
  %.sink12.i.i = phi i32 [ 0, %3 ], [ %switch.load, %switch.lookup ]
  %.sink.i.i = phi i32 [ 0, %3 ], [ %switch.load32, %switch.lookup ]
  %9 = getelementptr inbounds nuw i8, ptr %2, i64 8
  %10 = getelementptr inbounds nuw i8, ptr %2, i64 4
  store i32 %.sink12.i.i, ptr %10, align 4
  store i32 %.sink.i.i, ptr %9, align 4
  %11 = zext i8 %0 to i64
  %12 = getelementptr inbounds nuw [16 x i8], ptr @vtx_tab, i64 0, i64 %11
  %13 = load i8, ptr %12, align 1
  %14 = getelementptr inbounds nuw [16 x i8], ptr @htx_tab, i64 0, i64 %11
  %15 = load i8, ptr %14, align 1
  %16 = zext i8 %1 to i64
  %17 = getelementptr inbounds nuw [19 x ptr], ptr @av1_inv_txfm_shift_ls, i64 0, i64 %16
  %18 = load ptr, ptr %17, align 8
  %19 = getelementptr inbounds nuw i8, ptr %2, i64 16
  store ptr %18, ptr %19, align 8
  %20 = getelementptr inbounds nuw [19 x i32], ptr @tx_size_wide_log2, i64 0, i64 %16
  %21 = load i32, ptr %20, align 4
  %22 = add nsw i32 %21, -2
  %23 = getelementptr inbounds nuw [19 x i32], ptr @tx_size_high_log2, i64 0, i64 %16
  %24 = load i32, ptr %23, align 4
  %25 = add nsw i32 %24, -2
  %26 = sext i32 %22 to i64
  %27 = sext i32 %25 to i64
  %28 = getelementptr inbounds [5 x [5 x i8]], ptr @av1_inv_cos_bit_col, i64 0, i64 %26, i64 %27
  %29 = load i8, ptr %28, align 1
  %30 = getelementptr inbounds nuw i8, ptr %2, i64 24
  store i8 %29, ptr %30, align 8
  %31 = getelementptr inbounds [5 x [5 x i8]], ptr @av1_inv_cos_bit_row, i64 0, i64 %26, i64 %27
  %32 = load i8, ptr %31, align 1
  %33 = getelementptr inbounds nuw i8, ptr %2, i64 25
  store i8 %32, ptr %33, align 1
  %34 = zext i8 %13 to i64
  %35 = getelementptr inbounds [5 x [4 x i8]], ptr @av1_txfm_type_ls, i64 0, i64 %27, i64 %34
  %36 = load i8, ptr %35, align 1
  %37 = getelementptr inbounds nuw i8, ptr %2, i64 50
  store i8 %36, ptr %37, align 2
  %38 = icmp eq i8 %36, 5
  br i1 %38, label %39, label %40

39:                                               ; preds = %set_flip_cfg.exit
  tail call void @llvm.memcpy.p0.p0.i64(ptr noundef nonnull align 2 dereferenceable(7) %4, ptr noundef nonnull align 1 dereferenceable(7) @iadst4_range, i64 7, i1 false)
  br label %40

40:                                               ; preds = %39, %set_flip_cfg.exit
  %41 = zext i8 %15 to i64
  %42 = getelementptr inbounds [5 x [4 x i8]], ptr @av1_txfm_type_ls, i64 0, i64 %26, i64 %41
  %43 = load i8, ptr %42, align 1
  %44 = getelementptr inbounds nuw i8, ptr %2, i64 51
  store i8 %43, ptr %44, align 1
  %45 = icmp eq i8 %43, 5
  br i1 %45, label %46, label %47

46:                                               ; preds = %40
  tail call void @llvm.memcpy.p0.p0.i64(ptr noundef nonnull align 2 dereferenceable(7) %5, ptr noundef nonnull align 1 dereferenceable(7) @iadst4_range, i64 7, i1 false)
  br label %47

47:                                               ; preds = %46, %40
  %48 = zext i8 %36 to i64
  %49 = getelementptr inbounds nuw [12 x i8], ptr @av1_txfm_stage_num_list, i64 0, i64 %48
  %50 = load i8, ptr %49, align 1
  %51 = sext i8 %50 to i32
  %52 = getelementptr inbounds nuw i8, ptr %2, i64 52
  store i32 %51, ptr %52, align 4
  %53 = zext i8 %43 to i64
  %54 = getelementptr inbounds nuw [12 x i8], ptr @av1_txfm_stage_num_list, i64 0, i64 %53
  %55 = load i8, ptr %54, align 1
  %56 = sext i8 %55 to i32
  %57 = getelementptr inbounds nuw i8, ptr %2, i64 56
  store i32 %56, ptr %57, align 8
  ret void
}